; Function Attrs: nounwind uwtable
define dso_local zeroext i1 @conmgr_get_exit_on_error() local_unnamed_addr #0 {
  %1 = tail call i32 @pthread_mutex_lock(ptr noundef nonnull getelementptr inbounds nuw (i8, ptr @mgr, i64 168)) #11
  %.not = icmp eq i32 %1, 0
  br i1 %.not, label %4, label %2

2:                                                ; preds = %0
  %3 = tail call ptr @__errno_location() #12
  store i32 %1, ptr %3, align 4
  tail call void (ptr, ...) @fatal_abort(ptr noundef nonnull @.str.6, ptr noundef nonnull @__func__.conmgr_get_exit_on_error) #13
  unreachable

4:                                                ; preds = %0
  %5 = load i8, ptr getelementptr inbounds nuw (i8, ptr @mgr, i64 124), align 4, !range !8, !noundef !9
  %6 = tail call i32 @pthread_mutex_unlock(ptr noundef nonnull getelementptr inbounds nuw (i8, ptr @mgr, i64 168)) #11
  %.not6 = icmp eq i32 %6, 0
  br i1 %.not6, label %9, label %7

7:                                                ; preds = %4
  %8 = tail call ptr @__errno_location() #12
  store i32 %6, ptr %8, align 4
  tail call void (ptr, ...) @fatal_abort(ptr noundef nonnull @.str.9, ptr noundef nonnull @__func__.conmgr_get_exit_on_error) #13
  unreachable

9:                                                ; preds = %4
  %10 = trunc nuw i8 %5 to i1
  ret i1 %10
}